target datalayout = "e-m:e-p270:32:32-p271:32:32-p272:64:64-i64:64-i128:128-f80:128-n8:16:32:64-S128"
target triple = "x86_64-unknown-linux-gnu"

%"class.dimacs::stream_buffer" = type { ptr, i32, i32 }
%class.svector.26 = type { %class.vector.27 }
%class.vector.27 = type { ptr }
%"class.sat::status" = type { i32, i32, ptr }
%"class.std::_Function_base" = type { %"union.std::_Any_data", ptr }
%"union.std::_Any_data" = type { %"union.std::_Nocopy_types" }
%"union.std::_Nocopy_types" = type { { i64, i64 } }
%"struct.dimacs::drat_record" = type { %class.svector.26, %"class.sat::status" }
%"class.dimacs::drat_parser" = type { %"class.dimacs::stream_buffer", ptr, %"struct.dimacs::drat_record", %"class.std::function.51", %class.svector.24 }
%"class.std::function.51" = type { %"class.std::_Function_base", ptr }
%class.svector.24 = type { %class.vector.25 }
%class.vector.25 = type { ptr }

@_ZTIN6dimacs9lex_errorE = linkonce_odr hidden constant { ptr, ptr } { ptr getelementptr inbounds (ptr, ptr @_ZTVN10__cxxabiv117__class_type_infoE, i64 2), ptr @_ZTSN6dimacs9lex_errorE }, comdat, align 8

; Function Attrs: mustprogress nounwind uwtable
define linkonce_odr hidden noundef ptr @_ZNK6vectorIcLb0EjE4dataEv(ptr noundef nonnull align 8 dereferenceable(8) %this) #4 comdat align 2 {
entry:
  %this.addr = alloca ptr, align 8
  store ptr %this, ptr %this.addr, align 8
  %this1 = load ptr, ptr %this.addr, align 8
  %m_data = getelementptr inbounds %class.vector.25, ptr %this1, i32 0, i32 0
  %0 = load ptr, ptr %m_data, align 8
  ret ptr %0
}

; Function Attrs: mustprogress uwtable
define linkonce_odr hidden void @_ZN6dimacs13stream_bufferppEv(ptr noundef nonnull align 8 dereferenceable(16) %this) #5 comdat align 2 {
entry:
  %this.addr = alloca ptr, align 8
  store ptr %this, ptr %this.addr, align 8
  %this1 = load ptr, ptr %this.addr, align 8
  %m_stream = getelementptr inbounds %"class.dimacs::stream_buffer", ptr %this1, i32 0, i32 0
  %0 = load ptr, ptr %m_stream, align 8
  %call = call noundef i32 @_ZNSi3getEv(ptr noundef nonnull align 8 dereferenceable(16) %0)
  %m_val = getelementptr inbounds %"class.dimacs::stream_buffer", ptr %this1, i32 0, i32 1
  store i32 %call, ptr %m_val, align 8
  %m_val2 = getelementptr inbounds %"class.dimacs::stream_buffer", ptr %this1, i32 0, i32 1
  %1 = load i32, ptr %m_val2, align 8
  %cmp = icmp eq i32 %1, 10
  br i1 %cmp, label %if.then, label %if.end

if.then:                                          ; preds = %entry
  %m_line = getelementptr inbounds %"class.dimacs::stream_buffer", ptr %this1, i32 0, i32 2
  %2 = load i32, ptr %m_line, align 4
  %inc = add i32 %2, 1
  store i32 %inc, ptr %m_line, align 4
  br label %if.end

if.end:                                           ; preds = %if.then, %entry
  ret void
}

; Function Attrs: mustprogress uwtable
define linkonce_odr hidden noundef nonnull align 8 dereferenceable(8) ptr @_ZN6vectorIcLb0EjE9push_backEOc(ptr noundef nonnull align 8 dereferenceable(8) %this, ptr noundef nonnull align 1 dereferenceable(1) %elem) #5 comdat align 2 {
entry:
  %this.addr = alloca ptr, align 8
  %elem.addr = alloca ptr, align 8
  store ptr %this, ptr %this.addr, align 8
  store ptr %elem, ptr %elem.addr, align 8
  %this1 = load ptr, ptr %this.addr, align 8
  %m_data = getelementptr inbounds %class.vector.25, ptr %this1, i32 0, i32 0
  %0 = load ptr, ptr %m_data, align 8
  %cmp = icmp eq ptr %0, null
  br i1 %cmp, label %if.then, label %lor.lhs.false

lor.lhs.false:                                    ; preds = %entry
  %m_data2 = getelementptr inbounds %class.vector.25, ptr %this1, i32 0, i32 0
  %1 = load ptr, ptr %m_data2, align 8
  %arrayidx = getelementptr inbounds i32, ptr %1, i64 -1
  %2 = load i32, ptr %arrayidx, align 4
  %m_data3 = getelementptr inbounds %class.vector.25, ptr %this1, i32 0, i32 0
  %3 = load ptr, ptr %m_data3, align 8
  %arrayidx4 = getelementptr inbounds i32, ptr %3, i64 -2
  %4 = load i32, ptr %arrayidx4, align 4
  %cmp5 = icmp eq i32 %2, %4
  br i1 %cmp5, label %if.then, label %if.end

if.then:                                          ; preds = %lor.lhs.false, %entry
  call void @_ZN6vectorIcLb0EjE13expand_vectorEv(ptr noundef nonnull align 8 dereferenceable(8) %this1)
  br label %if.end

if.end:                                           ; preds = %if.then, %lor.lhs.false
  %m_data6 = getelementptr inbounds %class.vector.25, ptr %this1, i32 0, i32 0
  %5 = load ptr, ptr %m_data6, align 8
  %m_data7 = getelementptr inbounds %class.vector.25, ptr %this1, i32 0, i32 0
  %6 = load ptr, ptr %m_data7, align 8
  %arrayidx8 = getelementptr inbounds i32, ptr %6, i64 -1
  %7 = load i32, ptr %arrayidx8, align 4
  %idx.ext = zext i32 %7 to i64
  %add.ptr = getelementptr inbounds i8, ptr %5, i64 %idx.ext
  %8 = load ptr, ptr %elem.addr, align 8
  %9 = load i8, ptr %8, align 1
  store i8 %9, ptr %add.ptr, align 1
  %m_data9 = getelementptr inbounds %class.vector.25, ptr %this1, i32 0, i32 0
  %10 = load ptr, ptr %m_data9, align 8
  %arrayidx10 = getelementptr inbounds i32, ptr %10, i64 -1
  %11 = load i32, ptr %arrayidx10, align 4
  %inc = add i32 %11, 1
  store i32 %inc, ptr %arrayidx10, align 4
  ret ptr %this1
}

; Function Attrs: mustprogress nounwind uwtable
define linkonce_odr hidden noundef i32 @_ZNK6dimacs13stream_bufferdeEv(ptr noundef nonnull align 8 dereferenceable(16) %this) #4 comdat align 2 {
entry:
  %this.addr = alloca ptr, align 8
  store ptr %this, ptr %this.addr, align 8
  %this1 = load ptr, ptr %this.addr, align 8
  %m_val = getelementptr inbounds %"class.dimacs::stream_buffer", ptr %this1, i32 0, i32 1
  %0 = load i32, ptr %m_val, align 8
  ret i32 %0
}

; Function Attrs: mustprogress nounwind uwtable
define linkonce_odr hidden void @_ZN6vectorIcLb0EjE5resetEv(ptr noundef nonnull align 8 dereferenceable(8) %this) #4 comdat align 2 {
entry:
  %this.addr = alloca ptr, align 8
  store ptr %this, ptr %this.addr, align 8
  %this1 = load ptr, ptr %this.addr, align 8
  %m_data = getelementptr inbounds %class.vector.25, ptr %this1, i32 0, i32 0
  %0 = load ptr, ptr %m_data, align 8
  %tobool = icmp ne ptr %0, null
  br i1 %tobool, label %if.then, label %if.end

if.then:                                          ; preds = %entry
  %m_data2 = getelementptr inbounds %class.vector.25, ptr %this1, i32 0, i32 0
  %1 = load ptr, ptr %m_data2, align 8
  %arrayidx = getelementptr inbounds i32, ptr %1, i64 -1
  store i32 0, ptr %arrayidx, align 4
  br label %if.end

if.end:                                           ; preds = %if.then, %entry
  ret void
}

; Function Attrs: mustprogress uwtable
define hidden noundef ptr @_ZN6dimacs11drat_parser19parse_quoted_symbolEv(ptr noundef nonnull align 8 dereferenceable(88) %this) #5 align 2 {
entry:
  %this.addr = alloca ptr, align 8
  %ref.tmp = alloca i8, align 1
  %escape = alloca i8, align 1
  %c = alloca i32, align 4
  %ref.tmp14 = alloca i8, align 1
  %ref.tmp18 = alloca i8, align 1
  %ref.tmp26 = alloca i8, align 1
  store ptr %this, ptr %this.addr, align 8
  %this1 = load ptr, ptr %this.addr, align 8
  %m_buffer = getelementptr inbounds %"class.dimacs::drat_parser", ptr %this1, i32 0, i32 4
  call void @_ZN6vectorIcLb0EjE5resetEv(ptr noundef nonnull align 8 dereferenceable(8) %m_buffer)
  %m_buffer2 = getelementptr inbounds %"class.dimacs::drat_parser", ptr %this1, i32 0, i32 4
  %in = getelementptr inbounds %"class.dimacs::drat_parser", ptr %this1, i32 0, i32 0
  %call = call noundef i32 @_ZNK6dimacs13stream_bufferdeEv(ptr noundef nonnull align 8 dereferenceable(16) %in)
  %conv = trunc i32 %call to i8
  store i8 %conv, ptr %ref.tmp, align 1
  %call3 = call noundef nonnull align 8 dereferenceable(8) ptr @_ZN6vectorIcLb0EjE9push_backEOc(ptr noundef nonnull align 8 dereferenceable(8) %m_buffer2, ptr noundef nonnull align 1 dereferenceable(1) %ref.tmp)
  store i8 0, ptr %escape, align 1
  %in4 = getelementptr inbounds %"class.dimacs::drat_parser", ptr %this1, i32 0, i32 0
  call void @_ZN6dimacs13stream_bufferppEv(ptr noundef nonnull align 8 dereferenceable(16) %in4)
  br label %while.body

while.body:                                       ; preds = %if.end23, %entry
  %in5 = getelementptr inbounds %"class.dimacs::drat_parser", ptr %this1, i32 0, i32 0
  %call6 = call noundef i32 @_ZNK6dimacs13stream_bufferdeEv(ptr noundef nonnull align 8 dereferenceable(16) %in5)
  store i32 %call6, ptr %c, align 4
  %0 = load i32, ptr %c, align 4
  %cmp = icmp eq i32 %0, -1
  br i1 %cmp, label %if.then, label %if.else

if.then:                                          ; preds = %while.body
  %exception = call ptr @__cxa_allocate_exception(i64 1) #3
  call void @__cxa_throw(ptr %exception, ptr @_ZTIN6dimacs9lex_errorE, ptr null) #13
  unreachable

if.else:                                          ; preds = %while.body
  %1 = load i32, ptr %c, align 4
  %cmp7 = icmp eq i32 %1, 10
  br i1 %cmp7, label %if.then8, label %if.else9

if.then8:                                         ; preds = %if.else
  br label %if.end22

if.else9:                                         ; preds = %if.else
  %2 = load i32, ptr %c, align 4
  %cmp10 = icmp eq i32 %2, 124
  br i1 %cmp10, label %land.lhs.true, label %if.end

land.lhs.true:                                    ; preds = %if.else9
  %3 = load i8, ptr %escape, align 1
  %tobool = trunc i8 %3 to i1
  br i1 %tobool, label %if.end, label %if.then11

if.then11:                                        ; preds = %land.lhs.true
  %in12 = getelementptr inbounds %"class.dimacs::drat_parser", ptr %this1, i32 0, i32 0
  call void @_ZN6dimacs13stream_bufferppEv(ptr noundef nonnull align 8 dereferenceable(16) %in12)
  %m_buffer13 = getelementptr inbounds %"class.dimacs::drat_parser", ptr %this1, i32 0, i32 4
  %4 = load i32, ptr %c, align 4
  %conv15 = trunc i32 %4 to i8
  store i8 %conv15, ptr %ref.tmp14, align 1
  %call16 = call noundef nonnull align 8 dereferenceable(8) ptr @_ZN6vectorIcLb0EjE9push_backEOc(ptr noundef nonnull align 8 dereferenceable(8) %m_buffer13, ptr noundef nonnull align 1 dereferenceable(1) %ref.tmp14)
  %m_buffer17 = getelementptr inbounds %"class.dimacs::drat_parser", ptr %this1, i32 0, i32 4
  store i8 0, ptr %ref.tmp18, align 1
  %call19 = call noundef nonnull align 8 dereferenceable(8) ptr @_ZN6vectorIcLb0EjE9push_backEOc(ptr noundef nonnull align 8 dereferenceable(8) %m_buffer17, ptr noundef nonnull align 1 dereferenceable(1) %ref.tmp18)
  %m_buffer20 = getelementptr inbounds %"class.dimacs::drat_parser", ptr %this1, i32 0, i32 4
  %call21 = call noundef ptr @_ZNK6vectorIcLb0EjE4dataEv(ptr noundef nonnull align 8 dereferenceable(8) %m_buffer20)
  ret ptr %call21

if.end:                                           ; preds = %land.lhs.true, %if.else9
  br label %if.end22

if.end22:                                         ; preds = %if.end, %if.then8
  br label %if.end23

if.end23:                                         ; preds = %if.end22
  %5 = load i32, ptr %c, align 4
  %cmp24 = icmp eq i32 %5, 92
  %frombool = zext i1 %cmp24 to i8
  store i8 %frombool, ptr %escape, align 1
  %m_buffer25 = getelementptr inbounds %"class.dimacs::drat_parser", ptr %this1, i32 0, i32 4
  %6 = load i32, ptr %c, align 4
  %conv27 = trunc i32 %6 to i8
  store i8 %conv27, ptr %ref.tmp26, align 1
  %call28 = call noundef nonnull align 8 dereferenceable(8) ptr @_ZN6vectorIcLb0EjE9push_backEOc(ptr noundef nonnull align 8 dereferenceable(8) %m_buffer25, ptr noundef nonnull align 1 dereferenceable(1) %ref.tmp26)
  %in29 = getelementptr inbounds %"class.dimacs::drat_parser", ptr %this1, i32 0, i32 0
  call void @_ZN6dimacs13stream_bufferppEv(ptr noundef nonnull align 8 dereferenceable(16) %in29)
  br label %while.body, !llvm.loop !7
}