; Function Attrs: mustprogress uwtable
define hidden noundef ptr @_ZN6dimacs11drat_parser19parse_quoted_symbolEv(ptr noundef nonnull align 8 dereferenceable(88) %this) local_unnamed_addr #3 align 2 {
entry:
  %m_buffer = getelementptr inbounds i8, ptr %this, i64 80
  %0 = load ptr, ptr %m_buffer, align 8
  %tobool.not.i = icmp eq ptr %0, null
  br i1 %tobool.not.i, label %_ZN6vectorIcLb0EjE5resetEv.exit.thread, label %_ZN6vectorIcLb0EjE5resetEv.exit

_ZN6vectorIcLb0EjE5resetEv.exit.thread:           ; preds = %entry
  %m_val.i69 = getelementptr inbounds i8, ptr %this, i64 8
  %1 = load i32, ptr %m_val.i69, align 8
  %conv70 = trunc i32 %1 to i8
  br label %if.then.i7

_ZN6vectorIcLb0EjE5resetEv.exit:                  ; preds = %entry
  %arrayidx.i = getelementptr inbounds i8, ptr %0, i64 -4
  store i32 0, ptr %arrayidx.i, align 4
  %.pr = load ptr, ptr %m_buffer, align 8
  %m_val.i = getelementptr inbounds i8, ptr %this, i64 8
  %2 = load i32, ptr %m_val.i, align 8
  %conv = trunc i32 %2 to i8
  %cmp.i = icmp eq ptr %.pr, null
  br i1 %cmp.i, label %if.then.i7, label %lor.lhs.false.i

lor.lhs.false.i:                                  ; preds = %_ZN6vectorIcLb0EjE5resetEv.exit
  %arrayidx.i6 = getelementptr inbounds i8, ptr %.pr, i64 -4
  %3 = load i32, ptr %arrayidx.i6, align 4
  %arrayidx4.i = getelementptr inbounds i8, ptr %.pr, i64 -8
  %4 = load i32, ptr %arrayidx4.i, align 4
  %cmp5.i = icmp eq i32 %3, %4
  br i1 %cmp5.i, label %if.then.i7, label %_ZN6vectorIcLb0EjE9push_backEOc.exit

if.then.i7:                                       ; preds = %_ZN6vectorIcLb0EjE5resetEv.exit.thread, %lor.lhs.false.i, %_ZN6vectorIcLb0EjE5resetEv.exit
  %conv75 = phi i8 [ %conv70, %_ZN6vectorIcLb0EjE5resetEv.exit.thread ], [ %conv, %lor.lhs.false.i ], [ %conv, %_ZN6vectorIcLb0EjE5resetEv.exit ]
  %m_val.i73 = phi ptr [ %m_val.i69, %_ZN6vectorIcLb0EjE5resetEv.exit.thread ], [ %m_val.i, %lor.lhs.false.i ], [ %m_val.i, %_ZN6vectorIcLb0EjE5resetEv.exit ]
  tail call void @_ZN6vectorIcLb0EjE13expand_vectorEv(ptr noundef nonnull align 8 dereferenceable(8) %m_buffer)
  %.pre.i = load ptr, ptr %m_buffer, align 8
  %arrayidx8.phi.trans.insert.i = getelementptr inbounds i8, ptr %.pre.i, i64 -4
  %.pre1.i = load i32, ptr %arrayidx8.phi.trans.insert.i, align 4
  br label %_ZN6vectorIcLb0EjE9push_backEOc.exit

_ZN6vectorIcLb0EjE9push_backEOc.exit:             ; preds = %lor.lhs.false.i, %if.then.i7
  %conv74 = phi i8 [ %conv75, %if.then.i7 ], [ %conv, %lor.lhs.false.i ]
  %m_val.i72 = phi ptr [ %m_val.i73, %if.then.i7 ], [ %m_val.i, %lor.lhs.false.i ]
  %5 = phi i32 [ %.pre1.i, %if.then.i7 ], [ %3, %lor.lhs.false.i ]
  %6 = phi ptr [ %.pre.i, %if.then.i7 ], [ %.pr, %lor.lhs.false.i ]
  %idx.ext.i = zext i32 %5 to i64
  %add.ptr.i = getelementptr inbounds i8, ptr %6, i64 %idx.ext.i
  store i8 %conv74, ptr %add.ptr.i, align 1
  %7 = load ptr, ptr %m_buffer, align 8
  %arrayidx10.i = getelementptr inbounds i8, ptr %7, i64 -4
  %8 = load i32, ptr %arrayidx10.i, align 4
  %inc.i = add i32 %8, 1
  store i32 %inc.i, ptr %arrayidx10.i, align 4
  %9 = load ptr, ptr %this, align 8
  %call.i = tail call noundef i32 @_ZNSi3getEv(ptr noundef nonnull align 8 dereferenceable(16) %9)
  store i32 %call.i, ptr %m_val.i72, align 8
  %cmp.i9 = icmp eq i32 %call.i, 10
  br i1 %cmp.i9, label %if.then.i10, label %_ZN6dimacs13stream_bufferppEv.exit

if.then.i10:                                      ; preds = %_ZN6vectorIcLb0EjE9push_backEOc.exit
  %m_line.i = getelementptr inbounds i8, ptr %this, i64 12
  %10 = load i32, ptr %m_line.i, align 4
  %inc.i11 = add i32 %10, 1
  store i32 %inc.i11, ptr %m_line.i, align 4
  br label %_ZN6dimacs13stream_bufferppEv.exit

_ZN6dimacs13stream_bufferppEv.exit:               ; preds = %_ZN6vectorIcLb0EjE9push_backEOc.exit, %if.then.i10
  %m_line.i66 = getelementptr inbounds i8, ptr %this, i64 12
  br label %while.body

while.body:                                       ; preds = %while.body.backedge, %_ZN6dimacs13stream_bufferppEv.exit
  %escape.0 = phi i1 [ false, %_ZN6dimacs13stream_bufferppEv.exit ], [ %cmp24, %while.body.backedge ]
  %11 = load i32, ptr %m_val.i72, align 8
  switch i32 %11, label %if.end23 [
    i32 -1, label %if.then
    i32 124, label %land.lhs.true
  ]

if.then:                                          ; preds = %while.body
  %exception = tail call ptr @__cxa_allocate_exception(i64 1) #16
  tail call void @__cxa_throw(ptr %exception, ptr nonnull @_ZTIN6dimacs9lex_errorE, ptr null) #17
  unreachable

land.lhs.true:                                    ; preds = %while.body
  br i1 %escape.0, label %if.end23, label %if.then11

if.then11:                                        ; preds = %land.lhs.true
  %12 = load ptr, ptr %this, align 8
  %call.i13 = tail call noundef i32 @_ZNSi3getEv(ptr noundef nonnull align 8 dereferenceable(16) %12)
  store i32 %call.i13, ptr %m_val.i72, align 8
  %cmp.i15 = icmp eq i32 %call.i13, 10
  br i1 %cmp.i15, label %if.then.i16, label %_ZN6dimacs13stream_bufferppEv.exit19

if.then.i16:                                      ; preds = %if.then11
  %13 = load i32, ptr %m_line.i66, align 4
  %inc.i18 = add i32 %13, 1
  store i32 %inc.i18, ptr %m_line.i66, align 4
  br label %_ZN6dimacs13stream_bufferppEv.exit19

_ZN6dimacs13stream_bufferppEv.exit19:             ; preds = %if.then11, %if.then.i16
  %14 = load ptr, ptr %m_buffer, align 8
  %cmp.i20 = icmp eq ptr %14, null
  br i1 %cmp.i20, label %if.then.i29, label %lor.lhs.false.i21

lor.lhs.false.i21:                                ; preds = %_ZN6dimacs13stream_bufferppEv.exit19
  %arrayidx.i22 = getelementptr inbounds i8, ptr %14, i64 -4
  %15 = load i32, ptr %arrayidx.i22, align 4
  %arrayidx4.i23 = getelementptr inbounds i8, ptr %14, i64 -8
  %16 = load i32, ptr %arrayidx4.i23, align 4
  %cmp5.i24 = icmp eq i32 %15, %16
  br i1 %cmp5.i24, label %if.then.i29, label %_ZN6vectorIcLb0EjE9push_backEOc.exit33

if.then.i29:                                      ; preds = %lor.lhs.false.i21, %_ZN6dimacs13stream_bufferppEv.exit19
  tail call void @_ZN6vectorIcLb0EjE13expand_vectorEv(ptr noundef nonnull align 8 dereferenceable(8) %m_buffer)
  %.pre.i30 = load ptr, ptr %m_buffer, align 8
  %arrayidx8.phi.trans.insert.i31 = getelementptr inbounds i8, ptr %.pre.i30, i64 -4
  %.pre1.i32 = load i32, ptr %arrayidx8.phi.trans.insert.i31, align 4
  br label %_ZN6vectorIcLb0EjE9push_backEOc.exit33

_ZN6vectorIcLb0EjE9push_backEOc.exit33:           ; preds = %lor.lhs.false.i21, %if.then.i29
  %17 = phi i32 [ %.pre1.i32, %if.then.i29 ], [ %15, %lor.lhs.false.i21 ]
  %18 = phi ptr [ %.pre.i30, %if.then.i29 ], [ %14, %lor.lhs.false.i21 ]
  %idx.ext.i25 = zext i32 %17 to i64
  %add.ptr.i26 = getelementptr inbounds i8, ptr %18, i64 %idx.ext.i25
  store i8 124, ptr %add.ptr.i26, align 1
  %19 = load ptr, ptr %m_buffer, align 8
  %arrayidx10.i27 = getelementptr inbounds i8, ptr %19, i64 -4
  %20 = load i32, ptr %arrayidx10.i27, align 4
  %inc.i28 = add i32 %20, 1
  store i32 %inc.i28, ptr %arrayidx10.i27, align 4
  %21 = load ptr, ptr %m_buffer, align 8
  %cmp.i34 = icmp eq ptr %21, null
  br i1 %cmp.i34, label %if.then.i43, label %lor.lhs.false.i35

lor.lhs.false.i35:                                ; preds = %_ZN6vectorIcLb0EjE9push_backEOc.exit33
  %arrayidx.i36 = getelementptr inbounds i8, ptr %21, i64 -4
  %22 = load i32, ptr %arrayidx.i36, align 4
  %arrayidx4.i37 = getelementptr inbounds i8, ptr %21, i64 -8
  %23 = load i32, ptr %arrayidx4.i37, align 4
  %cmp5.i38 = icmp eq i32 %22, %23
  br i1 %cmp5.i38, label %if.then.i43, label %_ZN6vectorIcLb0EjE9push_backEOc.exit47

if.then.i43:                                      ; preds = %lor.lhs.false.i35, %_ZN6vectorIcLb0EjE9push_backEOc.exit33
  tail call void @_ZN6vectorIcLb0EjE13expand_vectorEv(ptr noundef nonnull align 8 dereferenceable(8) %m_buffer)
  %.pre.i44 = load ptr, ptr %m_buffer, align 8
  %arrayidx8.phi.trans.insert.i45 = getelementptr inbounds i8, ptr %.pre.i44, i64 -4
  %.pre1.i46 = load i32, ptr %arrayidx8.phi.trans.insert.i45, align 4
  br label %_ZN6vectorIcLb0EjE9push_backEOc.exit47

_ZN6vectorIcLb0EjE9push_backEOc.exit47:           ; preds = %lor.lhs.false.i35, %if.then.i43
  %24 = phi i32 [ %.pre1.i46, %if.then.i43 ], [ %22, %lor.lhs.false.i35 ]
  %25 = phi ptr [ %.pre.i44, %if.then.i43 ], [ %21, %lor.lhs.false.i35 ]
  %idx.ext.i39 = zext i32 %24 to i64
  %add.ptr.i40 = getelementptr inbounds i8, ptr %25, i64 %idx.ext.i39
  store i8 0, ptr %add.ptr.i40, align 1
  %26 = load ptr, ptr %m_buffer, align 8
  %arrayidx10.i41 = getelementptr inbounds i8, ptr %26, i64 -4
  %27 = load i32, ptr %arrayidx10.i41, align 4
  %inc.i42 = add i32 %27, 1
  store i32 %inc.i42, ptr %arrayidx10.i41, align 4
  %28 = load ptr, ptr %m_buffer, align 8
  ret ptr %28

if.end23:                                         ; preds = %while.body, %land.lhs.true
  %cmp24 = icmp eq i32 %11, 92
  %conv27 = trunc i32 %11 to i8
  %29 = load ptr, ptr %m_buffer, align 8
  %cmp.i48 = icmp eq ptr %29, null
  br i1 %cmp.i48, label %if.then.i57, label %lor.lhs.false.i49

lor.lhs.false.i49:                                ; preds = %if.end23
  %arrayidx.i50 = getelementptr inbounds i8, ptr %29, i64 -4
  %30 = load i32, ptr %arrayidx.i50, align 4
  %arrayidx4.i51 = getelementptr inbounds i8, ptr %29, i64 -8
  %31 = load i32, ptr %arrayidx4.i51, align 4
  %cmp5.i52 = icmp eq i32 %30, %31
  br i1 %cmp5.i52, label %if.then.i57, label %_ZN6vectorIcLb0EjE9push_backEOc.exit61

if.then.i57:                                      ; preds = %lor.lhs.false.i49, %if.end23
  tail call void @_ZN6vectorIcLb0EjE13expand_vectorEv(ptr noundef nonnull align 8 dereferenceable(8) %m_buffer)
  %.pre.i58 = load ptr, ptr %m_buffer, align 8
  %arrayidx8.phi.trans.insert.i59 = getelementptr inbounds i8, ptr %.pre.i58, i64 -4
  %.pre1.i60 = load i32, ptr %arrayidx8.phi.trans.insert.i59, align 4
  br label %_ZN6vectorIcLb0EjE9push_backEOc.exit61

_ZN6vectorIcLb0EjE9push_backEOc.exit61:           ; preds = %lor.lhs.false.i49, %if.then.i57
  %32 = phi i32 [ %.pre1.i60, %if.then.i57 ], [ %30, %lor.lhs.false.i49 ]
  %33 = phi ptr [ %.pre.i58, %if.then.i57 ], [ %29, %lor.lhs.false.i49 ]
  %idx.ext.i53 = zext i32 %32 to i64
  %add.ptr.i54 = getelementptr inbounds i8, ptr %33, i64 %idx.ext.i53
  store i8 %conv27, ptr %add.ptr.i54, align 1
  %34 = load ptr, ptr %m_buffer, align 8
  %arrayidx10.i55 = getelementptr inbounds i8, ptr %34, i64 -4
  %35 = load i32, ptr %arrayidx10.i55, align 4
  %inc.i56 = add i32 %35, 1
  store i32 %inc.i56, ptr %arrayidx10.i55, align 4
  %36 = load ptr, ptr %this, align 8
  %call.i62 = tail call noundef i32 @_ZNSi3getEv(ptr noundef nonnull align 8 dereferenceable(16) %36)
  store i32 %call.i62, ptr %m_val.i72, align 8
  %cmp.i64 = icmp eq i32 %call.i62, 10
  br i1 %cmp.i64, label %if.then.i65, label %while.body.backedge

while.body.backedge:                              ; preds = %_ZN6vectorIcLb0EjE9push_backEOc.exit61, %if.then.i65
  br label %while.body, !llvm.loop !15

if.then.i65:                                      ; preds = %_ZN6vectorIcLb0EjE9push_backEOc.exit61
  %37 = load i32, ptr %m_line.i66, align 4
  %inc.i67 = add i32 %37, 1
  store i32 %inc.i67, ptr %m_line.i66, align 4
  br label %while.body.backedge
}